target datalayout = "e-m:e-p270:32:32-p271:32:32-p272:64:64-i64:64-i128:128-f80:128-n8:16:32:64-S128"
target triple = "x86_64-pc-linux-gnu"

; Function Attrs: alwaysinline nounwind willreturn memory(none) uwtable
define internal zeroext i8 @av_clip_uint8_c(i32 noundef %0) #2 {
  %2 = alloca i8, align 1
  %3 = alloca i32, align 4
  store i32 %0, ptr %3, align 4, !tbaa !11
  %4 = load i32, ptr %3, align 4, !tbaa !11
  %5 = and i32 %4, -256
  %6 = icmp ne i32 %5, 0
  br i1 %6, label %7, label %12

7:                                                ; preds = %1
  %8 = load i32, ptr %3, align 4, !tbaa !11
  %9 = xor i32 %8, -1
  %10 = ashr i32 %9, 31
  %11 = trunc i32 %10 to i8
  store i8 %11, ptr %2, align 1
  br label %15

12:                                               ; preds = %1
  %13 = load i32, ptr %3, align 4, !tbaa !11
  %14 = trunc i32 %13 to i8
  store i8 %14, ptr %2, align 1
  br label %15

15:                                               ; preds = %12, %7
  %16 = load i8, ptr %2, align 1
  ret i8 %16
}

; Function Attrs: nounwind uwtable
define void @ff_h264_idct8_dc_add_8_c(ptr noundef %0, ptr noundef %1, i32 noundef %2) #0 {
  %4 = alloca ptr, align 8
  %5 = alloca ptr, align 8
  %6 = alloca i32, align 4
  %7 = alloca i32, align 4
  %8 = alloca i32, align 4
  %9 = alloca ptr, align 8
  %10 = alloca ptr, align 8
  %11 = alloca i32, align 4
  store ptr %0, ptr %4, align 8, !tbaa !4
  store ptr %1, ptr %5, align 8, !tbaa !9
  store i32 %2, ptr %6, align 4, !tbaa !11
  call void @llvm.lifetime.start.p0(i64 4, ptr %7) #4
  call void @llvm.lifetime.start.p0(i64 4, ptr %8) #4
  call void @llvm.lifetime.start.p0(i64 8, ptr %9) #4
  %12 = load ptr, ptr %4, align 8, !tbaa !4
  store ptr %12, ptr %9, align 8, !tbaa !4
  call void @llvm.lifetime.start.p0(i64 8, ptr %10) #4
  %13 = load ptr, ptr %5, align 8, !tbaa !9
  store ptr %13, ptr %10, align 8, !tbaa !9
  call void @llvm.lifetime.start.p0(i64 4, ptr %11) #4
  %14 = load ptr, ptr %10, align 8, !tbaa !9
  %15 = getelementptr inbounds i16, ptr %14, i64 0
  %16 = load i16, ptr %15, align 2, !tbaa !13
  %17 = sext i16 %16 to i32
  %18 = add nsw i32 %17, 32
  %19 = ashr i32 %18, 6
  store i32 %19, ptr %11, align 4, !tbaa !11
  %20 = load ptr, ptr %10, align 8, !tbaa !9
  %21 = getelementptr inbounds i16, ptr %20, i64 0
  store i16 0, ptr %21, align 2, !tbaa !13
  %22 = load i32, ptr %6, align 4, !tbaa !11
  %23 = sext i32 %22 to i64
  %24 = udiv i64 %23, 1
  %25 = trunc i64 %24 to i32
  store i32 %25, ptr %6, align 4, !tbaa !11
  store i32 0, ptr %8, align 4, !tbaa !11
  br label %26

26:                                               ; preds = %55, %3
  %27 = load i32, ptr %8, align 4, !tbaa !11
  %28 = icmp slt i32 %27, 8
  br i1 %28, label %29, label %58

29:                                               ; preds = %26
  store i32 0, ptr %7, align 4, !tbaa !11
  br label %30

30:                                               ; preds = %47, %29
  %31 = load i32, ptr %7, align 4, !tbaa !11
  %32 = icmp slt i32 %31, 8
  br i1 %32, label %33, label %50

33:                                               ; preds = %30
  %34 = load ptr, ptr %9, align 8, !tbaa !4
  %35 = load i32, ptr %7, align 4, !tbaa !11
  %36 = sext i32 %35 to i64
  %37 = getelementptr inbounds i8, ptr %34, i64 %36
  %38 = load i8, ptr %37, align 1, !tbaa !17
  %39 = zext i8 %38 to i32
  %40 = load i32, ptr %11, align 4, !tbaa !11
  %41 = add nsw i32 %39, %40
  %42 = call zeroext i8 @av_clip_uint8_c(i32 noundef %41) #5
  %43 = load ptr, ptr %9, align 8, !tbaa !4
  %44 = load i32, ptr %7, align 4, !tbaa !11
  %45 = sext i32 %44 to i64
  %46 = getelementptr inbounds i8, ptr %43, i64 %45
  store i8 %42, ptr %46, align 1, !tbaa !17
  br label %47

47:                                               ; preds = %33
  %48 = load i32, ptr %7, align 4, !tbaa !11
  %49 = add nsw i32 %48, 1
  store i32 %49, ptr %7, align 4, !tbaa !11
  br label %30, !llvm.loop !23

50:                                               ; preds = %30
  %51 = load i32, ptr %6, align 4, !tbaa !11
  %52 = load ptr, ptr %9, align 8, !tbaa !4
  %53 = sext i32 %51 to i64
  %54 = getelementptr inbounds i8, ptr %52, i64 %53
  store ptr %54, ptr %9, align 8, !tbaa !4
  br label %55

55:                                               ; preds = %50
  %56 = load i32, ptr %8, align 4, !tbaa !11
  %57 = add nsw i32 %56, 1
  store i32 %57, ptr %8, align 4, !tbaa !11
  br label %26, !llvm.loop !24

58:                                               ; preds = %26
  call void @llvm.lifetime.end.p0(i64 4, ptr %11) #4
  call void @llvm.lifetime.end.p0(i64 8, ptr %10) #4
  call void @llvm.lifetime.end.p0(i64 8, ptr %9) #4
  call void @llvm.lifetime.end.p0(i64 4, ptr %8) #4
  call void @llvm.lifetime.end.p0(i64 4, ptr %7) #4
  ret void
}